target datalayout = "e-m:e-p270:32:32-p271:32:32-p272:64:64-i64:64-i128:128-f80:128-n8:16:32:64-S128"
target triple = "x86_64-pc-linux-gnu"

%struct._address = type { i32, i32, ptr, ptr }
%struct._packet_info = type { ptr, ptr, i32, i32, %struct.nstime_t, %struct.nstime_t, %struct.nstime_t, i8, ptr, ptr, ptr, ptr, %struct._address, %struct._address, %struct._address, %struct._address, %struct._address, %struct._address, i32, ptr, i8, [3 x i8], %struct.anon, i32, i32, i32, i32, ptr, i8, ptr, ptr, i16, i16, i32, i32, i16, i32, i32, ptr, ptr, ptr, i8, i8, i16, i16, i16, i32, i16, i16, ptr, ptr, ptr, ptr, ptr, i32, i32 }
%struct.nstime_t = type { i64, i32 }
%struct.anon = type { i8, [3 x i8] }

@shared_secret = internal global ptr @.str.115, align 8
@authenticator = internal global [16 x i8] zeroinitializer, align 16

; Function Attrs: alwaysinline nounwind
define internal ptr @memcpy.inline(ptr noalias %0, ptr noalias %1, i64 %2) #3 {
  %4 = alloca ptr, align 8
  %5 = alloca ptr, align 8
  %6 = alloca i64, align 8
  store ptr %0, ptr %4, align 8
  store ptr %1, ptr %5, align 8
  store i64 %2, ptr %6, align 8
  %7 = load ptr, ptr %4, align 8
  %8 = load ptr, ptr %5, align 8
  %9 = load i64, ptr %6, align 8
  %10 = load ptr, ptr %4, align 8
  %11 = call i64 @llvm.objectsize.i64.p0(ptr %10, i1 false, i1 true, i1 true)
  %12 = call ptr @__memcpy_chk(ptr noundef %7, ptr noundef %8, i64 noundef %9, i64 noundef %11) #17
  ret ptr %12
}

; Function Attrs: alwaysinline nounwind
define internal ptr @memset.inline(ptr %0, i32 %1, i64 %2) #3 {
  %4 = alloca ptr, align 8
  %5 = alloca i32, align 4
  %6 = alloca i64, align 8
  store ptr %0, ptr %4, align 8
  store i32 %1, ptr %5, align 4
  store i64 %2, ptr %6, align 8
  %7 = load ptr, ptr %4, align 8
  %8 = load i32, ptr %5, align 4
  %9 = load i64, ptr %6, align 8
  %10 = load ptr, ptr %4, align 8
  %11 = call i64 @llvm.objectsize.i64.p0(ptr %10, i1 false, i1 true, i1 true)
  %12 = call ptr @__memset_chk(ptr noundef %7, i32 noundef %8, i64 noundef %9, i64 noundef %11) #17
  ret ptr %12
}

; Function Attrs: null_pointer_is_valid sspstrong uwtable
define internal i32 @valid_authenticator(ptr noundef %0, ptr noundef %1, ptr noundef %2, i1 noundef zeroext %3, i32 noundef %4) #0 {
  %6 = alloca i32, align 4
  %7 = alloca ptr, align 8
  %8 = alloca ptr, align 8
  %9 = alloca ptr, align 8
  %10 = alloca i8, align 1
  %11 = alloca i32, align 4
  %12 = alloca ptr, align 8
  %13 = alloca ptr, align 8
  %14 = alloca i8, align 1
  %15 = alloca i32, align 4
  %16 = alloca i8, align 1
  %17 = alloca ptr, align 8
  %18 = alloca [16 x i8], align 16
  %19 = alloca i32, align 4
  store ptr %0, ptr %7, align 8
  store ptr %1, ptr %8, align 8
  store ptr %2, ptr %9, align 8
  %20 = zext i1 %3 to i8
  store i8 %20, ptr %10, align 1
  store i32 %4, ptr %11, align 4
  call void @llvm.lifetime.start.p0(i64 8, ptr %12) #17
  call void @llvm.lifetime.start.p0(i64 8, ptr %13) #17
  call void @llvm.lifetime.start.p0(i64 1, ptr %14) #17
  call void @llvm.lifetime.start.p0(i64 4, ptr %15) #17
  call void @llvm.lifetime.start.p0(i64 1, ptr %16) #17
  call void @llvm.lifetime.start.p0(i64 8, ptr %17) #17
  call void @llvm.lifetime.start.p0(i64 16, ptr %18) #17
  %21 = load ptr, ptr %8, align 8
  %22 = call i32 @tvb_captured_length(ptr noundef %21)
  store i32 %22, ptr %15, align 4
  %23 = load i32, ptr %15, align 4
  %24 = load ptr, ptr %8, align 8
  %25 = call i32 @tvb_reported_length(ptr noundef %24)
  %26 = icmp ne i32 %23, %25
  br i1 %26, label %32, label %27

27:                                               ; preds = %5
  %28 = load i32, ptr %15, align 4
  %29 = load i32, ptr %11, align 4
  %30 = add i32 %29, 16
  %31 = icmp ult i32 %28, %30
  br i1 %31, label %32, label %33

32:                                               ; preds = %27, %5
  store i32 -1, ptr %6, align 4
  store i32 1, ptr %19, align 4
  br label %124

33:                                               ; preds = %27
  %34 = load ptr, ptr %7, align 8
  %35 = getelementptr inbounds nuw %struct._packet_info, ptr %34, i32 0, i32 51
  %36 = load ptr, ptr %35, align 8
  %37 = load ptr, ptr %8, align 8
  %38 = load i32, ptr %15, align 4
  %39 = zext i32 %38 to i64
  %40 = call ptr @tvb_memdup(ptr noundef %36, ptr noundef %37, i32 noundef 0, i64 noundef %39)
  store ptr %40, ptr %17, align 8
  %41 = load ptr, ptr %8, align 8
  %42 = call zeroext i8 @tvb_get_uint8(ptr noundef %41, i32 noundef 0)
  store i8 %42, ptr %16, align 1
  %43 = load i8, ptr %10, align 1, !range !6, !noundef !7
  %44 = trunc i8 %43 to i1
  br i1 %44, label %45, label %86

45:                                               ; preds = %33
  %46 = load ptr, ptr %17, align 8
  %47 = load i32, ptr %11, align 4
  %48 = sext i32 %47 to i64
  %49 = getelementptr i8, ptr %46, i64 %48
  %50 = call ptr @memset.inline(ptr noundef %49, i32 noundef 0, i64 noundef 16) #17
  %51 = load i8, ptr %16, align 1
  %52 = zext i8 %51 to i32
  %53 = icmp ne i32 %52, 1
  br i1 %53, label %54, label %59

54:                                               ; preds = %45
  %55 = load ptr, ptr %17, align 8
  %56 = getelementptr i8, ptr %55, i64 4
  %57 = load ptr, ptr %9, align 8
  %58 = call ptr @memcpy.inline(ptr noundef %56, ptr noundef %57, i64 noundef 16) #17
  br label %59

59:                                               ; preds = %54, %45
  %60 = load ptr, ptr %8, align 8
  %61 = getelementptr inbounds [16 x i8], ptr %18, i64 0, i64 0
  %62 = load i32, ptr %11, align 4
  %63 = call ptr @tvb_memcpy(ptr noundef %60, ptr noundef %61, i32 noundef %62, i64 noundef 16)
  %64 = call i32 @gcry_md_open(ptr noundef %12, i32 noundef 1, i32 noundef 2)
  %65 = icmp ne i32 %64, 0
  br i1 %65, label %66, label %67

66:                                               ; preds = %59
  store i32 -1, ptr %6, align 4
  store i32 1, ptr %19, align 4
  br label %124

67:                                               ; preds = %59
  %68 = load ptr, ptr %12, align 8
  %69 = load ptr, ptr @shared_secret, align 8
  %70 = load ptr, ptr @shared_secret, align 8
  %71 = call i64 @strlen(ptr noundef %70) #22
  %72 = call i32 @gcry_md_setkey(ptr noundef %68, ptr noundef %69, i64 noundef %71)
  %73 = load ptr, ptr %12, align 8
  %74 = load ptr, ptr %17, align 8
  %75 = load i32, ptr %15, align 4
  %76 = zext i32 %75 to i64
  call void @gcry_md_write(ptr noundef %73, ptr noundef %74, i64 noundef %76)
  %77 = load ptr, ptr %12, align 8
  %78 = call ptr @gcry_md_read(ptr noundef %77, i32 noundef 0)
  store ptr %78, ptr %13, align 8
  %79 = load ptr, ptr %13, align 8
  %80 = getelementptr inbounds [16 x i8], ptr %18, i64 0, i64 0
  %81 = call i32 @memcmp(ptr noundef %79, ptr noundef %80, i64 noundef 16) #22
  %82 = icmp ne i32 %81, 0
  %83 = xor i1 %82, true
  %84 = zext i1 %83 to i8
  store i8 %84, ptr %14, align 1
  %85 = load ptr, ptr %12, align 8
  call void @gcry_md_close(ptr noundef %85)
  br label %120

86:                                               ; preds = %33
  %87 = load i8, ptr %16, align 1
  %88 = zext i8 %87 to i32
  %89 = icmp eq i32 %88, 4
  br i1 %89, label %90, label %94

90:                                               ; preds = %86
  %91 = load ptr, ptr %17, align 8
  %92 = getelementptr i8, ptr %91, i64 4
  %93 = call ptr @memset.inline(ptr noundef %92, i32 noundef 0, i64 noundef 16) #17
  br label %99

94:                                               ; preds = %86
  %95 = load ptr, ptr %17, align 8
  %96 = getelementptr i8, ptr %95, i64 4
  %97 = load ptr, ptr %9, align 8
  %98 = call ptr @memcpy.inline(ptr noundef %96, ptr noundef %97, i64 noundef 16) #17
  br label %99

99:                                               ; preds = %94, %90
  %100 = call i32 @gcry_md_open(ptr noundef %12, i32 noundef 1, i32 noundef 0)
  %101 = icmp ne i32 %100, 0
  br i1 %101, label %102, label %103

102:                                              ; preds = %99
  store i32 -1, ptr %6, align 4
  store i32 1, ptr %19, align 4
  br label %124

103:                                              ; preds = %99
  %104 = load ptr, ptr %12, align 8
  %105 = load ptr, ptr %17, align 8
  %106 = load i32, ptr %15, align 4
  %107 = zext i32 %106 to i64
  call void @gcry_md_write(ptr noundef %104, ptr noundef %105, i64 noundef %107)
  %108 = load ptr, ptr %12, align 8
  %109 = load ptr, ptr @shared_secret, align 8
  %110 = load ptr, ptr @shared_secret, align 8
  %111 = call i64 @strlen(ptr noundef %110) #22
  call void @gcry_md_write(ptr noundef %108, ptr noundef %109, i64 noundef %111)
  %112 = load ptr, ptr %12, align 8
  %113 = call ptr @gcry_md_read(ptr noundef %112, i32 noundef 0)
  store ptr %113, ptr %13, align 8
  %114 = load ptr, ptr %13, align 8
  %115 = call i32 @memcmp(ptr noundef %114, ptr noundef @authenticator, i64 noundef 16) #22
  %116 = icmp ne i32 %115, 0
  %117 = xor i1 %116, true
  %118 = zext i1 %117 to i8
  store i8 %118, ptr %14, align 1
  %119 = load ptr, ptr %12, align 8
  call void @gcry_md_close(ptr noundef %119)
  br label %120

120:                                              ; preds = %103, %67
  %121 = load i8, ptr %14, align 1, !range !6, !noundef !7
  %122 = trunc i8 %121 to i1
  %123 = zext i1 %122 to i32
  store i32 %123, ptr %6, align 4
  store i32 1, ptr %19, align 4
  br label %124

124:                                              ; preds = %120, %102, %66, %32
  call void @llvm.lifetime.end.p0(i64 16, ptr %18) #17
  call void @llvm.lifetime.end.p0(i64 8, ptr %17) #17
  call void @llvm.lifetime.end.p0(i64 1, ptr %16) #17
  call void @llvm.lifetime.end.p0(i64 4, ptr %15) #17
  call void @llvm.lifetime.end.p0(i64 1, ptr %14) #17
  call void @llvm.lifetime.end.p0(i64 8, ptr %13) #17
  call void @llvm.lifetime.end.p0(i64 8, ptr %12) #17
  %125 = load i32, ptr %6, align 4
  ret i32 %125
}