; Function Attrs: null_pointer_is_valid sspstrong uwtable
define internal fastcc range(i32 -1, 2) i32 @valid_authenticator(ptr noundef readonly captures(none) %0, ptr noundef %1, ptr noundef nonnull readonly captures(none) %2, i1 noundef zeroext %3, i32 noundef %4) unnamed_addr #0 {
  %6 = alloca ptr, align 8
  %7 = alloca [16 x i8], align 16
  call void @llvm.lifetime.start.p0(i64 8, ptr nonnull %6) #14
  call void @llvm.lifetime.start.p0(i64 16, ptr nonnull %7) #14
  %8 = tail call i32 @tvb_captured_length(ptr noundef %1)
  %9 = tail call i32 @tvb_reported_length(ptr noundef %1)
  %.not = icmp ne i32 %8, %9
  %10 = add i32 %4, 16
  %11 = icmp ult i32 %8, %10
  %or.cond = or i1 %11, %.not
  br i1 %or.cond, label %49, label %12

12:                                               ; preds = %5
  %13 = getelementptr inbounds nuw i8, ptr %0, i64 408
  %14 = load ptr, ptr %13, align 8
  %15 = zext i32 %8 to i64
  %16 = tail call ptr @tvb_memdup(ptr noundef %14, ptr noundef %1, i32 noundef 0, i64 noundef %15)
  %17 = tail call zeroext i8 @tvb_get_uint8(ptr noundef %1, i32 noundef 0)
  br i1 %3, label %18, label %32

18:                                               ; preds = %12
  %19 = sext i32 %4 to i64
  %20 = getelementptr i8, ptr %16, i64 %19
  tail call void @llvm.memset.p0.i64(ptr noundef align 1 dereferenceable(16) %20, i8 noundef 0, i64 noundef 16, i1 noundef false) #14
  %.not32 = icmp eq i8 %17, 1
  br i1 %.not32, label %23, label %21

21:                                               ; preds = %18
  %22 = getelementptr i8, ptr %16, i64 4
  tail call void @llvm.memcpy.p0.p0.i64(ptr noundef align 1 dereferenceable(16) %22, ptr noundef nonnull align 1 dereferenceable(16) %2, i64 noundef 16, i1 noundef false) #14
  br label %23

23:                                               ; preds = %21, %18
  %24 = call ptr @tvb_memcpy(ptr noundef %1, ptr noundef nonnull %7, i32 noundef %4, i64 noundef 16)
  %25 = call i32 @gcry_md_open(ptr noundef nonnull %6, i32 noundef 1, i32 noundef 2)
  %.not33 = icmp eq i32 %25, 0
  br i1 %.not33, label %26, label %49

26:                                               ; preds = %23
  %27 = load ptr, ptr %6, align 8
  %28 = load ptr, ptr @shared_secret, align 8
  %29 = call i64 @strlen(ptr noundef %28) #18
  %30 = call i32 @gcry_md_setkey(ptr noundef %27, ptr noundef %28, i64 noundef %29)
  %31 = load ptr, ptr %6, align 8
  call void @gcry_md_write(ptr noundef %31, ptr noundef %16, i64 noundef %15)
  br label %44

32:                                               ; preds = %12
  %33 = icmp eq i8 %17, 4
  %34 = getelementptr i8, ptr %16, i64 4
  br i1 %33, label %35, label %36

35:                                               ; preds = %32
  tail call void @llvm.memset.p0.i64(ptr noundef align 1 dereferenceable(16) %34, i8 noundef 0, i64 noundef 16, i1 noundef false) #14
  br label %37

36:                                               ; preds = %32
  tail call void @llvm.memcpy.p0.p0.i64(ptr noundef align 1 dereferenceable(16) %34, ptr noundef nonnull align 1 dereferenceable(16) %2, i64 noundef 16, i1 noundef false) #14
  br label %37

37:                                               ; preds = %36, %35
  %38 = call i32 @gcry_md_open(ptr noundef nonnull %6, i32 noundef 1, i32 noundef 0)
  %.not30 = icmp eq i32 %38, 0
  br i1 %.not30, label %39, label %49

39:                                               ; preds = %37
  %40 = load ptr, ptr %6, align 8
  call void @gcry_md_write(ptr noundef %40, ptr noundef %16, i64 noundef %15)
  %41 = load ptr, ptr %6, align 8
  %42 = load ptr, ptr @shared_secret, align 8
  %43 = call i64 @strlen(ptr noundef %42) #18
  call void @gcry_md_write(ptr noundef %41, ptr noundef %42, i64 noundef %43)
  br label %44

44:                                               ; preds = %39, %26
  %authenticator.sink = phi ptr [ @authenticator, %39 ], [ %7, %26 ]
  %45 = load ptr, ptr %6, align 8
  %46 = call ptr @gcry_md_read(ptr noundef %45, i32 noundef 0)
  %bcmp = call i32 @bcmp(ptr noundef dereferenceable(16) %46, ptr noundef nonnull dereferenceable(16) %authenticator.sink, i64 16)
  %47 = load ptr, ptr %6, align 8
  call void @gcry_md_close(ptr noundef %47)
  %.028.in = icmp eq i32 %bcmp, 0
  %48 = zext i1 %.028.in to i32
  br label %49

49:                                               ; preds = %37, %23, %5, %44
  %.0 = phi i32 [ %48, %44 ], [ -1, %5 ], [ -1, %23 ], [ -1, %37 ]
  call void @llvm.lifetime.end.p0(i64 16, ptr nonnull %7) #14
  call void @llvm.lifetime.end.p0(i64 8, ptr nonnull %6) #14
  ret i32 %.0
}